	.section	__TEXT,__text,regular,pure_instructions
	.build_version macos, 10, 14	sdk_version 10, 14
	.section	__TEXT,__literal16,16byte_literals
	.p2align	4               ## -- Begin function _ZN6CenoGL12glmVectorAddERNS_5Vec3DES1_
LCPI0_0:
	.long	0                       ## float 0
	.long	1065353216              ## float 1
	.space	4
	.space	4
	.section	__TEXT,__text,regular,pure_instructions
	.globl	__ZN6CenoGL12glmVectorAddERNS_5Vec3DES1_
	.p2align	4, 0x90
__ZN6CenoGL12glmVectorAddERNS_5Vec3DES1_: ## @_ZN6CenoGL12glmVectorAddERNS_5Vec3DES1_
	.cfi_startproc
## %bb.0:
	pushq	%rbp
	.cfi_def_cfa_offset 16
	.cfi_offset %rbp, -16
	movq	%rsp, %rbp
	.cfi_def_cfa_register %rbp
	movaps	LCPI0_0(%rip), %xmm1    ## xmm1 = <0,1,u,u>
	xorps	%xmm0, %xmm0
	popq	%rbp
	retq
	.cfi_endproc
                                        ## -- End function
	.section	__TEXT,__literal16,16byte_literals
	.p2align	4               ## -- Begin function _ZN6CenoGL12glmVectorSubERNS_5Vec3DES1_
LCPI1_0:
	.long	0                       ## float 0
	.long	1065353216              ## float 1
	.space	4
	.space	4
	.section	__TEXT,__text,regular,pure_instructions
	.globl	__ZN6CenoGL12glmVectorSubERNS_5Vec3DES1_
	.p2align	4, 0x90
__ZN6CenoGL12glmVectorSubERNS_5Vec3DES1_: ## @_ZN6CenoGL12glmVectorSubERNS_5Vec3DES1_
	.cfi_startproc
## %bb.0:
	pushq	%rbp
	.cfi_def_cfa_offset 16
	.cfi_offset %rbp, -16
	movq	%rsp, %rbp
	.cfi_def_cfa_register %rbp
	movaps	LCPI1_0(%rip), %xmm1    ## xmm1 = <0,1,u,u>
	xorps	%xmm0, %xmm0
	popq	%rbp
	retq
	.cfi_endproc
                                        ## -- End function
	.section	__TEXT,__literal16,16byte_literals
	.p2align	4               ## -- Begin function _ZN6CenoGL12glmVectorMulERNS_5Vec3DEf
LCPI2_0:
	.long	0                       ## float 0
	.long	1065353216              ## float 1
	.space	4
	.space	4
	.section	__TEXT,__text,regular,pure_instructions
	.globl	__ZN6CenoGL12glmVectorMulERNS_5Vec3DEf
	.p2align	4, 0x90
__ZN6CenoGL12glmVectorMulERNS_5Vec3DEf: ## @_ZN6CenoGL12glmVectorMulERNS_5Vec3DEf
	.cfi_startproc
## %bb.0:
	pushq	%rbp
	.cfi_def_cfa_offset 16
	.cfi_offset %rbp, -16
	movq	%rsp, %rbp
	.cfi_def_cfa_register %rbp
	movaps	LCPI2_0(%rip), %xmm1    ## xmm1 = <0,1,u,u>
	xorps	%xmm0, %xmm0
	popq	%rbp
	retq
	.cfi_endproc
                                        ## -- End function
	.section	__TEXT,__literal16,16byte_literals
	.p2align	4               ## -- Begin function _ZN6CenoGL12glmVectorMulERNS_5Vec3DES1_
LCPI3_0:
	.long	0                       ## float 0
	.long	1065353216              ## float 1
	.space	4
	.space	4
	.section	__TEXT,__text,regular,pure_instructions
	.globl	__ZN6CenoGL12glmVectorMulERNS_5Vec3DES1_
	.p2align	4, 0x90
__ZN6CenoGL12glmVectorMulERNS_5Vec3DES1_: ## @_ZN6CenoGL12glmVectorMulERNS_5Vec3DES1_
	.cfi_startproc
## %bb.0:
	pushq	%rbp
	.cfi_def_cfa_offset 16
	.cfi_offset %rbp, -16
	movq	%rsp, %rbp
	.cfi_def_cfa_register %rbp
	movaps	LCPI3_0(%rip), %xmm1    ## xmm1 = <0,1,u,u>
	xorps	%xmm0, %xmm0
	popq	%rbp
	retq
	.cfi_endproc
                                        ## -- End function
	.section	__TEXT,__literal16,16byte_literals
	.p2align	4               ## -- Begin function _ZN6CenoGL12glmVectorDivERNS_5Vec3DEf
LCPI4_0:
	.long	0                       ## float 0
	.long	1065353216              ## float 1
	.space	4
	.space	4
	.section	__TEXT,__text,regular,pure_instructions
	.globl	__ZN6CenoGL12glmVectorDivERNS_5Vec3DEf
	.p2align	4, 0x90
__ZN6CenoGL12glmVectorDivERNS_5Vec3DEf: ## @_ZN6CenoGL12glmVectorDivERNS_5Vec3DEf
	.cfi_startproc
## %bb.0:
	pushq	%rbp
	.cfi_def_cfa_offset 16
	.cfi_offset %rbp, -16
	movq	%rsp, %rbp
	.cfi_def_cfa_register %rbp
	movaps	LCPI4_0(%rip), %xmm1    ## xmm1 = <0,1,u,u>
	xorps	%xmm0, %xmm0
	popq	%rbp
	retq
	.cfi_endproc
                                        ## -- End function
	.section	__TEXT,__literal16,16byte_literals
	.p2align	4               ## -- Begin function _ZN6CenoGL12glmVectorDivERNS_5Vec3DES1_
LCPI5_0:
	.long	0                       ## float 0
	.long	1065353216              ## float 1
	.space	4
	.space	4
	.section	__TEXT,__text,regular,pure_instructions
	.globl	__ZN6CenoGL12glmVectorDivERNS_5Vec3DES1_
	.p2align	4, 0x90
__ZN6CenoGL12glmVectorDivERNS_5Vec3DES1_: ## @_ZN6CenoGL12glmVectorDivERNS_5Vec3DES1_
	.cfi_startproc
## %bb.0:
	pushq	%rbp
	.cfi_def_cfa_offset 16
	.cfi_offset %rbp, -16
	movq	%rsp, %rbp
	.cfi_def_cfa_register %rbp
	movaps	LCPI5_0(%rip), %xmm1    ## xmm1 = <0,1,u,u>
	xorps	%xmm0, %xmm0
	popq	%rbp
	retq
	.cfi_endproc
                                        ## -- End function
	.globl	__ZN6CenoGL19glmVectorDotProductERNS_5Vec3DES1_ ## -- Begin function _ZN6CenoGL19glmVectorDotProductERNS_5Vec3DES1_
	.p2align	4, 0x90
__ZN6CenoGL19glmVectorDotProductERNS_5Vec3DES1_: ## @_ZN6CenoGL19glmVectorDotProductERNS_5Vec3DES1_
	.cfi_startproc
## %bb.0:
	pushq	%rbp
	.cfi_def_cfa_offset 16
	.cfi_offset %rbp, -16
	movq	%rsp, %rbp
	.cfi_def_cfa_register %rbp
	popq	%rbp
	retq
	.cfi_endproc
                                        ## -- End function
	.globl	__ZN6CenoGL15glmVectorLengthERNS_5Vec3DE ## -- Begin function _ZN6CenoGL15glmVectorLengthERNS_5Vec3DE
	.p2align	4, 0x90
__ZN6CenoGL15glmVectorLengthERNS_5Vec3DE: ## @_ZN6CenoGL15glmVectorLengthERNS_5Vec3DE
	.cfi_startproc
## %bb.0:
	pushq	%rbp
	.cfi_def_cfa_offset 16
	.cfi_offset %rbp, -16
	movq	%rsp, %rbp
	.cfi_def_cfa_register %rbp
	sqrtss	%xmm0, %xmm0
	popq	%rbp
	retq
	.cfi_endproc
                                        ## -- End function
	.section	__TEXT,__literal16,16byte_literals
	.p2align	4               ## -- Begin function _ZN6CenoGL18glmVectorNormaliseERNS_5Vec3DE
LCPI8_0:
	.long	0                       ## float 0
	.long	1065353216              ## float 1
	.space	4
	.space	4
	.section	__TEXT,__text,regular,pure_instructions
	.globl	__ZN6CenoGL18glmVectorNormaliseERNS_5Vec3DE
	.p2align	4, 0x90
__ZN6CenoGL18glmVectorNormaliseERNS_5Vec3DE: ## @_ZN6CenoGL18glmVectorNormaliseERNS_5Vec3DE
	.cfi_startproc
## %bb.0:
	pushq	%rbp
	.cfi_def_cfa_offset 16
	.cfi_offset %rbp, -16
	movq	%rsp, %rbp
	.cfi_def_cfa_register %rbp
	movaps	LCPI8_0(%rip), %xmm1    ## xmm1 = <0,1,u,u>
	xorps	%xmm0, %xmm0
	popq	%rbp
	retq
	.cfi_endproc
                                        ## -- End function
	.section	__TEXT,__literal16,16byte_literals
	.p2align	4               ## -- Begin function _ZN6CenoGL21glmVectorCrossProductERNS_5Vec3DES1_
LCPI9_0:
	.long	0                       ## float 0
	.long	1065353216              ## float 1
	.space	4
	.space	4
	.section	__TEXT,__text,regular,pure_instructions
	.globl	__ZN6CenoGL21glmVectorCrossProductERNS_5Vec3DES1_
	.p2align	4, 0x90
__ZN6CenoGL21glmVectorCrossProductERNS_5Vec3DES1_: ## @_ZN6CenoGL21glmVectorCrossProductERNS_5Vec3DES1_
	.cfi_startproc
## %bb.0:
	pushq	%rbp
	.cfi_def_cfa_offset 16
	.cfi_offset %rbp, -16
	movq	%rsp, %rbp
	.cfi_def_cfa_register %rbp
	movaps	LCPI9_0(%rip), %xmm1    ## xmm1 = <0,1,u,u>
	xorps	%xmm0, %xmm0
	popq	%rbp
	retq
	.cfi_endproc
                                        ## -- End function
	.section	__TEXT,__literal16,16byte_literals
	.p2align	4               ## -- Begin function _ZN6CenoGL23glmMatrixMultiplyVectorERNS_6Mat4x4ERNS_5Vec3DE
LCPI10_0:
	.long	0                       ## float 0
	.long	1065353216              ## float 1
	.space	4
	.space	4
	.section	__TEXT,__text,regular,pure_instructions
	.globl	__ZN6CenoGL23glmMatrixMultiplyVectorERNS_6Mat4x4ERNS_5Vec3DE
	.p2align	4, 0x90
__ZN6CenoGL23glmMatrixMultiplyVectorERNS_6Mat4x4ERNS_5Vec3DE: ## @_ZN6CenoGL23glmMatrixMultiplyVectorERNS_6Mat4x4ERNS_5Vec3DE
	.cfi_startproc
## %bb.0:
	pushq	%rbp
	.cfi_def_cfa_offset 16
	.cfi_offset %rbp, -16
	movq	%rsp, %rbp
	.cfi_def_cfa_register %rbp
	movaps	LCPI10_0(%rip), %xmm1   ## xmm1 = <0,1,u,u>
	xorps	%xmm0, %xmm0
	popq	%rbp
	retq
	.cfi_endproc
                                        ## -- End function
	.globl	__ZN6CenoGL23glmMatrixMultiplyMatrixERNS_6Mat4x4ES1_ ## -- Begin function _ZN6CenoGL23glmMatrixMultiplyMatrixERNS_6Mat4x4ES1_
	.p2align	4, 0x90
__ZN6CenoGL23glmMatrixMultiplyMatrixERNS_6Mat4x4ES1_: ## @_ZN6CenoGL23glmMatrixMultiplyMatrixERNS_6Mat4x4ES1_
	.cfi_startproc
## %bb.0:
	pushq	%rbp
	.cfi_def_cfa_offset 16
	.cfi_offset %rbp, -16
	movq	%rsp, %rbp
	.cfi_def_cfa_register %rbp
	movq	$0, 56(%rdi)
	movq	$0, 48(%rdi)
	movq	$0, 40(%rdi)
	movq	$0, 32(%rdi)
	movq	$0, 24(%rdi)
	movq	$0, 16(%rdi)
	movq	$0, 8(%rdi)
	movss	(%rsi), %xmm7           ## xmm7 = mem[0],zero,zero,zero
	movss	4(%rsi), %xmm5          ## xmm5 = mem[0],zero,zero,zero
	movss	8(%rsi), %xmm6          ## xmm6 = mem[0],zero,zero,zero
	movss	12(%rsi), %xmm0         ## xmm0 = mem[0],zero,zero,zero
	movss	16(%rsi), %xmm8         ## xmm8 = mem[0],zero,zero,zero
	movss	20(%rsi), %xmm4         ## xmm4 = mem[0],zero,zero,zero
	movss	24(%rsi), %xmm1         ## xmm1 = mem[0],zero,zero,zero
	movss	28(%rsi), %xmm3         ## xmm3 = mem[0],zero,zero,zero
	movups	(%rdx), %xmm11
	movups	16(%rdx), %xmm12
	movaps	%xmm12, -16(%rbp)       ## 16-byte Spill
	movups	32(%rdx), %xmm9
	movaps	%xmm9, -32(%rbp)        ## 16-byte Spill
	movups	48(%rdx), %xmm10
	movss	32(%rsi), %xmm13        ## xmm13 = mem[0],zero,zero,zero
	movss	36(%rsi), %xmm2         ## xmm2 = mem[0],zero,zero,zero
	movss	40(%rsi), %xmm14        ## xmm14 = mem[0],zero,zero,zero
	movss	44(%rsi), %xmm15        ## xmm15 = mem[0],zero,zero,zero
	shufps	$0, %xmm7, %xmm7        ## xmm7 = xmm7[0,0,0,0]
	mulps	%xmm11, %xmm7
	shufps	$0, %xmm5, %xmm5        ## xmm5 = xmm5[0,0,0,0]
	mulps	%xmm12, %xmm5
	addps	%xmm7, %xmm5
	movss	48(%rsi), %xmm12        ## xmm12 = mem[0],zero,zero,zero
	shufps	$0, %xmm6, %xmm6        ## xmm6 = xmm6[0,0,0,0]
	mulps	%xmm9, %xmm6
	addps	%xmm5, %xmm6
	movss	52(%rsi), %xmm5         ## xmm5 = mem[0],zero,zero,zero
	shufps	$0, %xmm0, %xmm0        ## xmm0 = xmm0[0,0,0,0]
	mulps	%xmm10, %xmm0
	movaps	%xmm10, %xmm9
	addps	%xmm6, %xmm0
	movss	56(%rsi), %xmm7         ## xmm7 = mem[0],zero,zero,zero
	movss	60(%rsi), %xmm6         ## xmm6 = mem[0],zero,zero,zero
	movups	%xmm0, (%rdi)
	shufps	$0, %xmm8, %xmm8        ## xmm8 = xmm8[0,0,0,0]
	mulps	%xmm11, %xmm8
	shufps	$0, %xmm4, %xmm4        ## xmm4 = xmm4[0,0,0,0]
	movaps	-16(%rbp), %xmm10       ## 16-byte Reload
	mulps	%xmm10, %xmm4
	addps	%xmm8, %xmm4
	shufps	$0, %xmm1, %xmm1        ## xmm1 = xmm1[0,0,0,0]
	movaps	-32(%rbp), %xmm8        ## 16-byte Reload
	mulps	%xmm8, %xmm1
	addps	%xmm4, %xmm1
	shufps	$0, %xmm3, %xmm3        ## xmm3 = xmm3[0,0,0,0]
	mulps	%xmm9, %xmm3
	addps	%xmm1, %xmm3
	movups	%xmm3, 16(%rdi)
	shufps	$0, %xmm13, %xmm13      ## xmm13 = xmm13[0,0,0,0]
	mulps	%xmm11, %xmm13
	shufps	$0, %xmm2, %xmm2        ## xmm2 = xmm2[0,0,0,0]
	mulps	%xmm10, %xmm2
	addps	%xmm13, %xmm2
	shufps	$0, %xmm14, %xmm14      ## xmm14 = xmm14[0,0,0,0]
	mulps	%xmm8, %xmm14
	addps	%xmm2, %xmm14
	shufps	$0, %xmm15, %xmm15      ## xmm15 = xmm15[0,0,0,0]
	mulps	%xmm9, %xmm15
	addps	%xmm14, %xmm15
	movups	%xmm15, 32(%rdi)
	shufps	$0, %xmm12, %xmm12      ## xmm12 = xmm12[0,0,0,0]
	mulps	%xmm11, %xmm12
	shufps	$0, %xmm5, %xmm5        ## xmm5 = xmm5[0,0,0,0]
	mulps	%xmm10, %xmm5
	addps	%xmm12, %xmm5
	shufps	$0, %xmm7, %xmm7        ## xmm7 = xmm7[0,0,0,0]
	mulps	%xmm8, %xmm7
	addps	%xmm5, %xmm7
	shufps	$0, %xmm6, %xmm6        ## xmm6 = xmm6[0,0,0,0]
	mulps	%xmm9, %xmm6
	addps	%xmm7, %xmm6
	movups	%xmm6, 48(%rdi)
	movq	%rdi, %rax
	popq	%rbp
	retq
	.cfi_endproc
                                        ## -- End function
	.section	__TEXT,__literal16,16byte_literals
	.p2align	4               ## -- Begin function _ZN6CenoGL21glmMatrixQuickInverseERNS_6Mat4x4E
LCPI12_0:
	.long	2147483648              ## float -0
	.long	2147483648              ## float -0
	.long	2147483648              ## float -0
	.long	2147483648              ## float -0
	.section	__TEXT,__text,regular,pure_instructions
	.globl	__ZN6CenoGL21glmMatrixQuickInverseERNS_6Mat4x4E
	.p2align	4, 0x90
__ZN6CenoGL21glmMatrixQuickInverseERNS_6Mat4x4E: ## @_ZN6CenoGL21glmMatrixQuickInverseERNS_6Mat4x4E
	.cfi_startproc
## %bb.0:
	pushq	%rbp
	.cfi_def_cfa_offset 16
	.cfi_offset %rbp, -16
	movq	%rsp, %rbp
	.cfi_def_cfa_register %rbp
	pushq	%r14
	pushq	%rbx
	.cfi_offset %rbx, -32
	.cfi_offset %r14, -24
	movl	(%rsi), %eax
	movl	%eax, (%rdi)
	movl	16(%rsi), %r11d
	movl	%r11d, 4(%rdi)
	movl	32(%rsi), %r8d
	movl	%r8d, 8(%rdi)
	movl	$0, 12(%rdi)
	movl	4(%rsi), %ebx
	movl	%ebx, 16(%rdi)
	movl	20(%rsi), %r14d
	movl	%r14d, 20(%rdi)
	movl	36(%rsi), %r9d
	movl	%r9d, 24(%rdi)
	movl	$0, 28(%rdi)
	movl	8(%rsi), %ecx
	movl	%ecx, 32(%rdi)
	movl	24(%rsi), %edx
	movl	%edx, 36(%rdi)
	movl	40(%rsi), %r10d
	movl	%r10d, 40(%rdi)
	movl	$0, 44(%rdi)
	movd	%eax, %xmm2
	movss	48(%rsi), %xmm1         ## xmm1 = mem[0],zero,zero,zero
	movss	52(%rsi), %xmm0         ## xmm0 = mem[0],zero,zero,zero
	mulss	%xmm1, %xmm2
	movd	%ebx, %xmm3
	mulss	%xmm0, %xmm3
	addss	%xmm2, %xmm3
	movss	56(%rsi), %xmm2         ## xmm2 = mem[0],zero,zero,zero
	movd	%ecx, %xmm4
	mulss	%xmm2, %xmm4
	addss	%xmm3, %xmm4
	movaps	LCPI12_0(%rip), %xmm3   ## xmm3 = [-0.000000e+00,-0.000000e+00,-0.000000e+00,-0.000000e+00]
	xorps	%xmm3, %xmm4
	movss	%xmm4, 48(%rdi)
	movd	%r11d, %xmm4
	mulss	%xmm1, %xmm4
	movd	%r14d, %xmm5
	mulss	%xmm0, %xmm5
	addss	%xmm4, %xmm5
	movd	%edx, %xmm4
	mulss	%xmm2, %xmm4
	addss	%xmm5, %xmm4
	xorps	%xmm3, %xmm4
	movss	%xmm4, 52(%rdi)
	movd	%r8d, %xmm4
	mulss	%xmm1, %xmm4
	movd	%r9d, %xmm1
	mulss	%xmm0, %xmm1
	addss	%xmm4, %xmm1
	movd	%r10d, %xmm0
	mulss	%xmm2, %xmm0
	addss	%xmm1, %xmm0
	xorps	%xmm3, %xmm0
	movss	%xmm0, 56(%rdi)
	movl	$1065353216, 60(%rdi)   ## imm = 0x3F800000
	movq	%rdi, %rax
	popq	%rbx
	popq	%r14
	popq	%rbp
	retq
	.cfi_endproc
                                        ## -- End function

.subsections_via_symbols
